; ModuleID = '39/213.c'
source_filename = "39/213.c"
target datalayout = "e-m:e-p270:32:32-p271:32:32-p272:64:64-i64:64-f80:128-n8:16:32:64-S128"
target triple = "x86_64-pc-linux-gnu"

%struct.student = type { [21 x i8], i8, i8, i32, i32, i32, i32 }

@.str = private unnamed_addr constant [3 x i8] c"%d\00", align 1
@.str.1 = private unnamed_addr constant [18 x i8] c"%s %d %d %c %c %d\00", align 1
@stu = common dso_local global [100 x %struct.student] zeroinitializer, align 16
@temp = common dso_local global %struct.student zeroinitializer, align 4
@.str.2 = private unnamed_addr constant [10 x i8] c"\0A%s\0A%d\0A%d\00", align 1

; Function Attrs: noinline nounwind uwtable
define dso_local void @main() #0 {
  %1 = alloca i32, align 4
  %2 = alloca i32, align 4
  %3 = alloca i32, align 4
  %4 = alloca i32, align 4
  store i32 0, i32* %4, align 4
  %5 = call i32 (i8*, ...) @__isoc99_scanf(i8* getelementptr inbounds ([3 x i8], [3 x i8]* @.str, i64 0, i64 0), i32* %1)
  store i32 0, i32* %2, align 4
  br label %6

6:                                                ; preds = %37, %0
  %7 = load i32, i32* %2, align 4
  %8 = load i32, i32* %1, align 4
  %9 = icmp slt i32 %7, %8
  br i1 %9, label %10, label %40

10:                                               ; preds = %6
  %11 = load i32, i32* %2, align 4
  %12 = sext i32 %11 to i64
  %13 = getelementptr inbounds [100 x %struct.student], [100 x %struct.student]* @stu, i64 0, i64 %12
  %14 = getelementptr inbounds %struct.student, %struct.student* %13, i32 0, i32 0
  %15 = getelementptr inbounds [21 x i8], [21 x i8]* %14, i64 0, i64 0
  %16 = load i32, i32* %2, align 4
  %17 = sext i32 %16 to i64
  %18 = getelementptr inbounds [100 x %struct.student], [100 x %struct.student]* @stu, i64 0, i64 %17
  %19 = getelementptr inbounds %struct.student, %struct.student* %18, i32 0, i32 3
  %20 = load i32, i32* %2, align 4
  %21 = sext i32 %20 to i64
  %22 = getelementptr inbounds [100 x %struct.student], [100 x %struct.student]* @stu, i64 0, i64 %21
  %23 = getelementptr inbounds %struct.student, %struct.student* %22, i32 0, i32 4
  %24 = load i32, i32* %2, align 4
  %25 = sext i32 %24 to i64
  %26 = getelementptr inbounds [100 x %struct.student], [100 x %struct.student]* @stu, i64 0, i64 %25
  %27 = getelementptr inbounds %struct.student, %struct.student* %26, i32 0, i32 1
  %28 = load i32, i32* %2, align 4
  %29 = sext i32 %28 to i64
  %30 = getelementptr inbounds [100 x %struct.student], [100 x %struct.student]* @stu, i64 0, i64 %29
  %31 = getelementptr inbounds %struct.student, %struct.student* %30, i32 0, i32 2
  %32 = load i32, i32* %2, align 4
  %33 = sext i32 %32 to i64
  %34 = getelementptr inbounds [100 x %struct.student], [100 x %struct.student]* @stu, i64 0, i64 %33
  %35 = getelementptr inbounds %struct.student, %struct.student* %34, i32 0, i32 5
  %36 = call i32 (i8*, ...) @__isoc99_scanf(i8* getelementptr inbounds ([18 x i8], [18 x i8]* @.str.1, i64 0, i64 0), i8* %15, i32* %19, i32* %23, i8* %27, i8* %31, i32* %35)
  br label %37

37:                                               ; preds = %10
  %38 = load i32, i32* %2, align 4
  %39 = add nsw i32 %38, 1
  store i32 %39, i32* %2, align 4
  br label %6

40:                                               ; preds = %6
  store i32 0, i32* %2, align 4
  br label %41

41:                                               ; preds = %150, %40
  %42 = load i32, i32* %2, align 4
  %43 = load i32, i32* %1, align 4
  %44 = icmp slt i32 %42, %43
  br i1 %44, label %45, label %153

45:                                               ; preds = %41
  %46 = load i32, i32* %2, align 4
  %47 = sext i32 %46 to i64
  %48 = getelementptr inbounds [100 x %struct.student], [100 x %struct.student]* @stu, i64 0, i64 %47
  %49 = getelementptr inbounds %struct.student, %struct.student* %48, i32 0, i32 6
  store i32 0, i32* %49, align 4
  %50 = load i32, i32* %2, align 4
  %51 = sext i32 %50 to i64
  %52 = getelementptr inbounds [100 x %struct.student], [100 x %struct.student]* @stu, i64 0, i64 %51
  %53 = getelementptr inbounds %struct.student, %struct.student* %52, i32 0, i32 4
  %54 = load i32, i32* %53, align 4
  %55 = icmp sgt i32 %54, 80
  br i1 %55, label %56, label %71

56:                                               ; preds = %45
  %57 = load i32, i32* %2, align 4
  %58 = sext i32 %57 to i64
  %59 = getelementptr inbounds [100 x %struct.student], [100 x %struct.student]* @stu, i64 0, i64 %58
  %60 = getelementptr inbounds %struct.student, %struct.student* %59, i32 0, i32 1
  %61 = load i8, i8* %60, align 1
  %62 = sext i8 %61 to i32
  %63 = icmp eq i32 %62, 89
  br i1 %63, label %64, label %71

64:                                               ; preds = %56
  %65 = load i32, i32* %2, align 4
  %66 = sext i32 %65 to i64
  %67 = getelementptr inbounds [100 x %struct.student], [100 x %struct.student]* @stu, i64 0, i64 %66
  %68 = getelementptr inbounds %struct.student, %struct.student* %67, i32 0, i32 6
  %69 = load i32, i32* %68, align 4
  %70 = add nsw i32 %69, 850
  store i32 %70, i32* %68, align 4
  br label %71

71:                                               ; preds = %64, %56, %45
  %72 = load i32, i32* %2, align 4
  %73 = sext i32 %72 to i64
  %74 = getelementptr inbounds [100 x %struct.student], [100 x %struct.student]* @stu, i64 0, i64 %73
  %75 = getelementptr inbounds %struct.student, %struct.student* %74, i32 0, i32 3
  %76 = load i32, i32* %75, align 8
  %77 = icmp sgt i32 %76, 85
  br i1 %77, label %78, label %93

78:                                               ; preds = %71
  %79 = load i32, i32* %2, align 4
  %80 = sext i32 %79 to i64
  %81 = getelementptr inbounds [100 x %struct.student], [100 x %struct.student]* @stu, i64 0, i64 %80
  %82 = getelementptr inbounds %struct.student, %struct.student* %81, i32 0, i32 2
  %83 = load i8, i8* %82, align 2
  %84 = sext i8 %83 to i32
  %85 = icmp eq i32 %84, 89
  br i1 %85, label %86, label %93

86:                                               ; preds = %78
  %87 = load i32, i32* %2, align 4
  %88 = sext i32 %87 to i64
  %89 = getelementptr inbounds [100 x %struct.student], [100 x %struct.student]* @stu, i64 0, i64 %88
  %90 = getelementptr inbounds %struct.student, %struct.student* %89, i32 0, i32 6
  %91 = load i32, i32* %90, align 4
  %92 = add nsw i32 %91, 1000
  store i32 %92, i32* %90, align 4
  br label %93

93:                                               ; preds = %86, %78, %71
  %94 = load i32, i32* %2, align 4
  %95 = sext i32 %94 to i64
  %96 = getelementptr inbounds [100 x %struct.student], [100 x %struct.student]* @stu, i64 0, i64 %95
  %97 = getelementptr inbounds %struct.student, %struct.student* %96, i32 0, i32 3
  %98 = load i32, i32* %97, align 8
  %99 = icmp sgt i32 %98, 90
  br i1 %99, label %100, label %107

100:                                              ; preds = %93
  %101 = load i32, i32* %2, align 4
  %102 = sext i32 %101 to i64
  %103 = getelementptr inbounds [100 x %struct.student], [100 x %struct.student]* @stu, i64 0, i64 %102
  %104 = getelementptr inbounds %struct.student, %struct.student* %103, i32 0, i32 6
  %105 = load i32, i32* %104, align 4
  %106 = add nsw i32 %105, 2000
  store i32 %106, i32* %104, align 4
  br label %107

107:                                              ; preds = %100, %93
  %108 = load i32, i32* %2, align 4
  %109 = sext i32 %108 to i64
  %110 = getelementptr inbounds [100 x %struct.student], [100 x %struct.student]* @stu, i64 0, i64 %109
  %111 = getelementptr inbounds %struct.student, %struct.student* %110, i32 0, i32 3
  %112 = load i32, i32* %111, align 8
  %113 = icmp sgt i32 %112, 85
  br i1 %113, label %114, label %128

114:                                              ; preds = %107
  %115 = load i32, i32* %2, align 4
  %116 = sext i32 %115 to i64
  %117 = getelementptr inbounds [100 x %struct.student], [100 x %struct.student]* @stu, i64 0, i64 %116
  %118 = getelementptr inbounds %struct.student, %struct.student* %117, i32 0, i32 4
  %119 = load i32, i32* %118, align 4
  %120 = icmp sgt i32 %119, 80
  br i1 %120, label %121, label %128

121:                                              ; preds = %114
  %122 = load i32, i32* %2, align 4
  %123 = sext i32 %122 to i64
  %124 = getelementptr inbounds [100 x %struct.student], [100 x %struct.student]* @stu, i64 0, i64 %123
  %125 = getelementptr inbounds %struct.student, %struct.student* %124, i32 0, i32 6
  %126 = load i32, i32* %125, align 4
  %127 = add nsw i32 %126, 4000
  store i32 %127, i32* %125, align 4
  br label %128

128:                                              ; preds = %121, %114, %107
  %129 = load i32, i32* %2, align 4
  %130 = sext i32 %129 to i64
  %131 = getelementptr inbounds [100 x %struct.student], [100 x %struct.student]* @stu, i64 0, i64 %130
  %132 = getelementptr inbounds %struct.student, %struct.student* %131, i32 0, i32 3
  %133 = load i32, i32* %132, align 8
  %134 = icmp sgt i32 %133, 80
  br i1 %134, label %135, label %149

135:                                              ; preds = %128
  %136 = load i32, i32* %2, align 4
  %137 = sext i32 %136 to i64
  %138 = getelementptr inbounds [100 x %struct.student], [100 x %struct.student]* @stu, i64 0, i64 %137
  %139 = getelementptr inbounds %struct.student, %struct.student* %138, i32 0, i32 5
  %140 = load i32, i32* %139, align 8
  %141 = icmp sge i32 %140, 1
  br i1 %141, label %142, label %149

142:                                              ; preds = %135
  %143 = load i32, i32* %2, align 4
  %144 = sext i32 %143 to i64
  %145 = getelementptr inbounds [100 x %struct.student], [100 x %struct.student]* @stu, i64 0, i64 %144
  %146 = getelementptr inbounds %struct.student, %struct.student* %145, i32 0, i32 6
  %147 = load i32, i32* %146, align 4
  %148 = add nsw i32 %147, 8000
  store i32 %148, i32* %146, align 4
  br label %149

149:                                              ; preds = %142, %135, %128
  br label %150

150:                                              ; preds = %149
  %151 = load i32, i32* %2, align 4
  %152 = add nsw i32 %151, 1
  store i32 %152, i32* %2, align 4
  br label %41

153:                                              ; preds = %41
  store i32 1, i32* %3, align 4
  br label %154

154:                                              ; preds = %176, %153
  %155 = load i32, i32* %3, align 4
  %156 = load i32, i32* %1, align 4
  %157 = icmp slt i32 %155, %156
  br i1 %157, label %158, label %179

158:                                              ; preds = %154
  %159 = load i32, i32* getelementptr inbounds ([100 x %struct.student], [100 x %struct.student]* @stu, i64 0, i64 0, i32 6), align 4
  %160 = load i32, i32* %3, align 4
  %161 = sext i32 %160 to i64
  %162 = getelementptr inbounds [100 x %struct.student], [100 x %struct.student]* @stu, i64 0, i64 %161
  %163 = getelementptr inbounds %struct.student, %struct.student* %162, i32 0, i32 6
  %164 = load i32, i32* %163, align 4
  %165 = icmp slt i32 %159, %164
  br i1 %165, label %166, label %175

166:                                              ; preds = %158
  call void @llvm.memcpy.p0i8.p0i8.i64(i8* align 4 getelementptr inbounds (%struct.student, %struct.student* @temp, i32 0, i32 0, i32 0), i8* align 16 getelementptr inbounds ([100 x %struct.student], [100 x %struct.student]* @stu, i32 0, i32 0, i32 0, i32 0), i64 40, i1 false)
  %167 = load i32, i32* %3, align 4
  %168 = sext i32 %167 to i64
  %169 = getelementptr inbounds [100 x %struct.student], [100 x %struct.student]* @stu, i64 0, i64 %168
  %170 = bitcast %struct.student* %169 to i8*
  call void @llvm.memcpy.p0i8.p0i8.i64(i8* align 16 getelementptr inbounds ([100 x %struct.student], [100 x %struct.student]* @stu, i32 0, i32 0, i32 0, i32 0), i8* align 8 %170, i64 40, i1 false)
  %171 = load i32, i32* %3, align 4
  %172 = sext i32 %171 to i64
  %173 = getelementptr inbounds [100 x %struct.student], [100 x %struct.student]* @stu, i64 0, i64 %172
  %174 = bitcast %struct.student* %173 to i8*
  call void @llvm.memcpy.p0i8.p0i8.i64(i8* align 8 %174, i8* align 4 getelementptr inbounds (%struct.student, %struct.student* @temp, i32 0, i32 0, i32 0), i64 40, i1 false)
  br label %175

175:                                              ; preds = %166, %158
  br label %176

176:                                              ; preds = %175
  %177 = load i32, i32* %3, align 4
  %178 = add nsw i32 %177, 1
  store i32 %178, i32* %3, align 4
  br label %154

179:                                              ; preds = %154
  store i32 0, i32* %3, align 4
  br label %180

180:                                              ; preds = %192, %179
  %181 = load i32, i32* %3, align 4
  %182 = load i32, i32* %1, align 4
  %183 = icmp slt i32 %181, %182
  br i1 %183, label %184, label %195

184:                                              ; preds = %180
  %185 = load i32, i32* %3, align 4
  %186 = sext i32 %185 to i64
  %187 = getelementptr inbounds [100 x %struct.student], [100 x %struct.student]* @stu, i64 0, i64 %186
  %188 = getelementptr inbounds %struct.student, %struct.student* %187, i32 0, i32 6
  %189 = load i32, i32* %188, align 4
  %190 = load i32, i32* %4, align 4
  %191 = add nsw i32 %190, %189
  store i32 %191, i32* %4, align 4
  br label %192

192:                                              ; preds = %184
  %193 = load i32, i32* %3, align 4
  %194 = add nsw i32 %193, 1
  store i32 %194, i32* %3, align 4
  br label %180

195:                                              ; preds = %180
  %196 = load i32, i32* getelementptr inbounds ([100 x %struct.student], [100 x %struct.student]* @stu, i64 0, i64 0, i32 6), align 4
  %197 = load i32, i32* %4, align 4
  %198 = call i32 (i8*, ...) @printf(i8* getelementptr inbounds ([10 x i8], [10 x i8]* @.str.2, i64 0, i64 0), i8* getelementptr inbounds ([100 x %struct.student], [100 x %struct.student]* @stu, i64 0, i64 0, i32 0, i64 0), i32 %196, i32 %197)
  ret void
}

declare dso_local i32 @__isoc99_scanf(i8*, ...) #1

; Function Attrs: argmemonly nounwind willreturn
declare void @llvm.memcpy.p0i8.p0i8.i64(i8* noalias nocapture writeonly, i8* noalias nocapture readonly, i64, i1 immarg) #2

declare dso_local i32 @printf(i8*, ...) #1


!llvm.module.flags = !{!0}
!llvm.ident = !{!1}

!0 = !{i32 1, !"wchar_size", i32 4}
!1 = !{!"clang version 10.0.0-4ubuntu1 "}
